; Function Attrs: mustprogress uwtable
define internal void @_ZN12_GLOBAL__N_123propagate_values_tactic7cleanupEv(ptr noundef nonnull align 8 dereferenceable(120) %0) unnamed_addr #3 align 2 {
  %2 = getelementptr inbounds nuw i8, ptr %0, i64 24
  tail call void @_ZN11th_rewriter7cleanupEv(ptr noundef nonnull align 8 dereferenceable(16) %2)
  %3 = getelementptr inbounds nuw i8, ptr %0, i64 40
  %4 = load ptr, ptr %3, align 8, !tbaa !43
  %.not.i = icmp eq ptr %4, null
  br i1 %.not.i, label %_ZN10scoped_ptrI17expr_substitutionEaSEPS0_.exit, label %5

5:                                                ; preds = %1
  tail call void @_ZN17expr_substitutionD1Ev(ptr noundef nonnull align 8 dereferenceable(49) %4) #20
  tail call void @_ZN6memory10deallocateEPv(ptr noundef nonnull %4)
  store ptr null, ptr %3, align 8, !tbaa !43
  br label %_ZN10scoped_ptrI17expr_substitutionEaSEPS0_.exit

_ZN10scoped_ptrI17expr_substitutionEaSEPS0_.exit: ; preds = %1, %5
  %6 = getelementptr inbounds nuw i8, ptr %0, i64 56
  tail call void @_ZN11shared_occs7cleanupEv(ptr noundef nonnull align 8 dereferenceable(40) %6)
  ret void
}